target datalayout = "e-m:e-p270:32:32-p271:32:32-p272:64:64-i64:64-i128:128-f80:128-n8:16:32:64-S128"
target triple = "x86_64-pc-linux-gnu"

%struct.dcm_uid = type { ptr, ptr, ptr }
%struct._packet_info = type { ptr, ptr, i32, i32, %struct.nstime_t, %struct.nstime_t, %struct.nstime_t, i8, ptr, ptr, ptr, ptr, %struct._address, %struct._address, %struct._address, %struct._address, %struct._address, %struct._address, i32, ptr, i8, [3 x i8], %struct.anon, i32, i32, i32, i32, ptr, i8, ptr, ptr, i16, i16, i32, i32, i16, i32, i32, ptr, ptr, ptr, i8, i8, i16, i16, i16, i32, i16, i16, ptr, ptr, ptr, ptr, ptr, i32, i32 }
%struct.nstime_t = type { i64, i32 }
%struct._address = type { i32, i32, ptr, ptr }
%struct.anon = type { i8, [3 x i8] }

@.str.250 = private unnamed_addr constant [8 x i8] c"%s (%s)\00", align 1
@dcm_uid_table = internal global ptr null, align 8
@.str.306 = private unnamed_addr constant [3 x i8] c"%s\00", align 1
@.str.315 = private unnamed_addr constant [3 x i8] c"%d\00", align 1

; Function Attrs: null_pointer_is_valid sspstrong uwtable
define internal void @dissect_dcm_assoc_item(ptr noundef %0, ptr noundef %1, ptr noundef %2, i32 noundef %3, ptr noundef %4, i32 noundef %5, ptr noundef %6, ptr noundef %7, ptr noundef %8, ptr noundef %9, ptr noundef %10, i32 noundef %11) #0 {
  %13 = alloca ptr, align 8
  %14 = alloca ptr, align 8
  %15 = alloca ptr, align 8
  %16 = alloca i32, align 4
  %17 = alloca ptr, align 8
  %18 = alloca i32, align 4
  %19 = alloca ptr, align 8
  %20 = alloca ptr, align 8
  %21 = alloca ptr, align 8
  %22 = alloca ptr, align 8
  %23 = alloca ptr, align 8
  %24 = alloca i32, align 4
  %25 = alloca ptr, align 8
  %26 = alloca ptr, align 8
  %27 = alloca ptr, align 8
  %28 = alloca i32, align 4
  %29 = alloca i8, align 1
  %30 = alloca i16, align 2
  %31 = alloca ptr, align 8
  store ptr %0, ptr %13, align 8
  store ptr %1, ptr %14, align 8
  store ptr %2, ptr %15, align 8
  store i32 %3, ptr %16, align 4
  store ptr %4, ptr %17, align 8
  store i32 %5, ptr %18, align 4
  store ptr %6, ptr %19, align 8
  store ptr %7, ptr %20, align 8
  store ptr %8, ptr %21, align 8
  store ptr %9, ptr %22, align 8
  store ptr %10, ptr %23, align 8
  store i32 %11, ptr %24, align 4
  call void @llvm.lifetime.start.p0(i64 8, ptr %25) #14
  call void @llvm.lifetime.start.p0(i64 8, ptr %26) #14
  call void @llvm.lifetime.start.p0(i64 8, ptr %27) #14
  store ptr null, ptr %27, align 8
  call void @llvm.lifetime.start.p0(i64 4, ptr %28) #14
  store i32 0, ptr %28, align 4
  call void @llvm.lifetime.start.p0(i64 1, ptr %29) #14
  call void @llvm.lifetime.start.p0(i64 2, ptr %30) #14
  call void @llvm.lifetime.start.p0(i64 8, ptr %31) #14
  %32 = load ptr, ptr %19, align 8
  store ptr null, ptr %32, align 8
  %33 = load ptr, ptr %20, align 8
  store ptr null, ptr %33, align 8
  %34 = load ptr, ptr %13, align 8
  %35 = load i32, ptr %16, align 4
  %36 = call zeroext i8 @tvb_get_uint8(ptr noundef %34, i32 noundef %35)
  store i8 %36, ptr %29, align 1
  %37 = load ptr, ptr %13, align 8
  %38 = load i32, ptr %16, align 4
  %39 = add i32 %38, 2
  %40 = call zeroext i16 @tvb_get_ntohs(ptr noundef %37, i32 noundef %39)
  store i16 %40, ptr %30, align 2
  %41 = load ptr, ptr %15, align 8
  %42 = load ptr, ptr %13, align 8
  %43 = load i32, ptr %16, align 4
  %44 = load i16, ptr %30, align 2
  %45 = zext i16 %44 to i32
  %46 = add i32 %45, 4
  %47 = load i32, ptr %24, align 4
  %48 = load ptr, ptr %17, align 8
  %49 = call ptr @proto_tree_add_subtree(ptr noundef %41, ptr noundef %42, i32 noundef %43, i32 noundef %46, i32 noundef %47, ptr noundef %26, ptr noundef %48)
  store ptr %49, ptr %25, align 8
  %50 = load ptr, ptr %25, align 8
  %51 = load ptr, ptr %21, align 8
  %52 = load i32, ptr %51, align 4
  %53 = load ptr, ptr %13, align 8
  %54 = load i32, ptr %16, align 4
  %55 = load i8, ptr %29, align 1
  %56 = zext i8 %55 to i32
  %57 = call ptr @proto_tree_add_uint(ptr noundef %50, i32 noundef %52, ptr noundef %53, i32 noundef %54, i32 noundef 1, i32 noundef %56)
  %58 = load ptr, ptr %25, align 8
  %59 = load ptr, ptr %22, align 8
  %60 = load i32, ptr %59, align 4
  %61 = load ptr, ptr %13, align 8
  %62 = load i32, ptr %16, align 4
  %63 = add i32 %62, 2
  %64 = load i16, ptr %30, align 2
  %65 = zext i16 %64 to i32
  %66 = call ptr @proto_tree_add_uint(ptr noundef %58, i32 noundef %60, ptr noundef %61, i32 noundef %63, i32 noundef 2, i32 noundef %65)
  %67 = load i32, ptr %18, align 4
  switch i32 %67, label %158 [
    i32 1, label %68
    i32 2, label %114
    i32 3, label %139
  ]

68:                                               ; preds = %12
  %69 = load ptr, ptr %14, align 8
  %70 = getelementptr inbounds nuw %struct._packet_info, ptr %69, i32 0, i32 51
  %71 = load ptr, ptr %70, align 8
  %72 = load ptr, ptr %13, align 8
  %73 = load i32, ptr %16, align 4
  %74 = add i32 %73, 4
  %75 = load i16, ptr %30, align 2
  %76 = zext i16 %75 to i32
  %77 = call ptr @tvb_get_string_enc(ptr noundef %71, ptr noundef %72, i32 noundef %74, i32 noundef %76, i32 noundef 0)
  %78 = load ptr, ptr %19, align 8
  store ptr %77, ptr %78, align 8
  %79 = load ptr, ptr @dcm_uid_table, align 8
  %80 = load ptr, ptr %19, align 8
  %81 = load ptr, ptr %80, align 8
  %82 = call ptr @wmem_map_lookup(ptr noundef %79, ptr noundef %81)
  store ptr %82, ptr %27, align 8
  %83 = load ptr, ptr %27, align 8
  %84 = icmp ne ptr %83, null
  br i1 %84, label %85, label %98

85:                                               ; preds = %68
  %86 = load ptr, ptr %27, align 8
  %87 = getelementptr inbounds nuw %struct.dcm_uid, ptr %86, i32 0, i32 1
  %88 = load ptr, ptr %87, align 8
  %89 = load ptr, ptr %20, align 8
  store ptr %88, ptr %89, align 8
  %90 = load ptr, ptr %14, align 8
  %91 = getelementptr inbounds nuw %struct._packet_info, ptr %90, i32 0, i32 51
  %92 = load ptr, ptr %91, align 8
  %93 = load ptr, ptr %20, align 8
  %94 = load ptr, ptr %93, align 8
  %95 = load ptr, ptr %19, align 8
  %96 = load ptr, ptr %95, align 8
  %97 = call noalias ptr (ptr, ptr, ...) @wmem_strdup_printf(ptr noundef %92, ptr noundef @.str.250, ptr noundef %94, ptr noundef %96)
  store ptr %97, ptr %31, align 8
  br label %101

98:                                               ; preds = %68
  %99 = load ptr, ptr %19, align 8
  %100 = load ptr, ptr %99, align 8
  store ptr %100, ptr %31, align 8
  br label %101

101:                                              ; preds = %98, %85
  %102 = load ptr, ptr %26, align 8
  %103 = load ptr, ptr %31, align 8
  call void (ptr, ptr, ...) @proto_item_append_text(ptr noundef %102, ptr noundef @.str.306, ptr noundef %103)
  %104 = load ptr, ptr %25, align 8
  %105 = load ptr, ptr %23, align 8
  %106 = load i32, ptr %105, align 4
  %107 = load ptr, ptr %13, align 8
  %108 = load i32, ptr %16, align 4
  %109 = add i32 %108, 4
  %110 = load i16, ptr %30, align 2
  %111 = zext i16 %110 to i32
  %112 = load ptr, ptr %31, align 8
  %113 = call ptr @proto_tree_add_string(ptr noundef %104, i32 noundef %106, ptr noundef %107, i32 noundef %109, i32 noundef %111, ptr noundef %112)
  br label %159

114:                                              ; preds = %12
  %115 = load ptr, ptr %14, align 8
  %116 = getelementptr inbounds nuw %struct._packet_info, ptr %115, i32 0, i32 51
  %117 = load ptr, ptr %116, align 8
  %118 = load ptr, ptr %13, align 8
  %119 = load i32, ptr %16, align 4
  %120 = add i32 %119, 4
  %121 = load i16, ptr %30, align 2
  %122 = zext i16 %121 to i32
  %123 = call ptr @tvb_get_string_enc(ptr noundef %117, ptr noundef %118, i32 noundef %120, i32 noundef %122, i32 noundef 0)
  %124 = load ptr, ptr %19, align 8
  store ptr %123, ptr %124, align 8
  %125 = load ptr, ptr %26, align 8
  %126 = load ptr, ptr %19, align 8
  %127 = load ptr, ptr %126, align 8
  call void (ptr, ptr, ...) @proto_item_append_text(ptr noundef %125, ptr noundef @.str.306, ptr noundef %127)
  %128 = load ptr, ptr %25, align 8
  %129 = load ptr, ptr %23, align 8
  %130 = load i32, ptr %129, align 4
  %131 = load ptr, ptr %13, align 8
  %132 = load i32, ptr %16, align 4
  %133 = add i32 %132, 4
  %134 = load i16, ptr %30, align 2
  %135 = zext i16 %134 to i32
  %136 = load ptr, ptr %19, align 8
  %137 = load ptr, ptr %136, align 8
  %138 = call ptr @proto_tree_add_string(ptr noundef %128, i32 noundef %130, ptr noundef %131, i32 noundef %133, i32 noundef %135, ptr noundef %137)
  br label %159

139:                                              ; preds = %12
  %140 = load ptr, ptr %13, align 8
  %141 = load i32, ptr %16, align 4
  %142 = add i32 %141, 4
  %143 = call i32 @tvb_get_ntohl(ptr noundef %140, i32 noundef %142)
  store i32 %143, ptr %28, align 4
  %144 = call ptr @wmem_file_scope()
  %145 = load i32, ptr %28, align 4
  %146 = call noalias ptr (ptr, ptr, ...) @wmem_strdup_printf(ptr noundef %144, ptr noundef @.str.315, i32 noundef %145)
  %147 = load ptr, ptr %19, align 8
  store ptr %146, ptr %147, align 8
  %148 = load ptr, ptr %26, align 8
  %149 = load ptr, ptr %19, align 8
  %150 = load ptr, ptr %149, align 8
  call void (ptr, ptr, ...) @proto_item_append_text(ptr noundef %148, ptr noundef @.str.306, ptr noundef %150)
  %151 = load ptr, ptr %25, align 8
  %152 = load ptr, ptr %23, align 8
  %153 = load i32, ptr %152, align 4
  %154 = load ptr, ptr %13, align 8
  %155 = load i32, ptr %16, align 4
  %156 = add i32 %155, 4
  %157 = call ptr @proto_tree_add_item(ptr noundef %151, i32 noundef %153, ptr noundef %154, i32 noundef %156, i32 noundef 4, i32 noundef 0)
  br label %159

158:                                              ; preds = %12
  br label %159

159:                                              ; preds = %158, %139, %114, %101
  call void @llvm.lifetime.end.p0(i64 8, ptr %31) #14
  call void @llvm.lifetime.end.p0(i64 2, ptr %30) #14
  call void @llvm.lifetime.end.p0(i64 1, ptr %29) #14
  call void @llvm.lifetime.end.p0(i64 4, ptr %28) #14
  call void @llvm.lifetime.end.p0(i64 8, ptr %27) #14
  call void @llvm.lifetime.end.p0(i64 8, ptr %26) #14
  call void @llvm.lifetime.end.p0(i64 8, ptr %25) #14
  ret void
}