; Function Attrs: null_pointer_is_valid sspstrong uwtable
define internal fastcc void @dissect_dcm_assoc_item(ptr noundef %0, ptr noundef readonly captures(none) %1, ptr noundef %2, i32 noundef %3, ptr noundef %4, i32 noundef range(i32 1, 4) %5, ptr noundef captures(none) initializes((0, 8)) %6, ptr noundef writeonly captures(none) initializes((0, 8)) %7, ptr noundef readonly captures(none) %8, i32 noundef %9) unnamed_addr #0 {
  %11 = alloca ptr, align 8
  call void @llvm.lifetime.start.p0(i64 8, ptr nonnull %11) #12
  store ptr null, ptr %6, align 8
  store ptr null, ptr %7, align 8
  %12 = tail call zeroext i8 @tvb_get_uint8(ptr noundef %0, i32 noundef %3)
  %13 = add i32 %3, 2
  %14 = tail call zeroext i16 @tvb_get_ntohs(ptr noundef %0, i32 noundef %13)
  %15 = zext i16 %14 to i32
  %16 = add nuw nsw i32 %15, 4
  %17 = call ptr @proto_tree_add_subtree(ptr noundef %2, ptr noundef %0, i32 noundef %3, i32 noundef %16, i32 noundef %9, ptr noundef nonnull %11, ptr noundef %4)
  %18 = load i32, ptr @hf_dcm_assoc_item_type, align 4
  %19 = zext i8 %12 to i32
  %20 = call ptr @proto_tree_add_uint(ptr noundef %17, i32 noundef %18, ptr noundef %0, i32 noundef %3, i32 noundef 1, i32 noundef %19)
  %21 = load i32, ptr @hf_dcm_assoc_item_len, align 4
  %22 = call ptr @proto_tree_add_uint(ptr noundef %17, i32 noundef %21, ptr noundef %0, i32 noundef %13, i32 noundef 2, i32 noundef %15)
  switch i32 %5, label %default.unreachable1 [
    i32 1, label %23
    i32 2, label %42
    i32 3, label %51
  ]

23:                                               ; preds = %10
  %24 = getelementptr inbounds nuw i8, ptr %1, i64 408
  %25 = load ptr, ptr %24, align 8
  %26 = add i32 %3, 4
  %27 = call ptr @tvb_get_string_enc(ptr noundef %25, ptr noundef %0, i32 noundef %26, i32 noundef %15, i32 noundef 0)
  store ptr %27, ptr %6, align 8
  %28 = load ptr, ptr @dcm_uid_table, align 8
  %29 = call ptr @wmem_map_lookup(ptr noundef %28, ptr noundef %27)
  %.not = icmp eq ptr %29, null
  br i1 %.not, label %36, label %30

30:                                               ; preds = %23
  %31 = getelementptr inbounds nuw i8, ptr %29, i64 8
  %32 = load ptr, ptr %31, align 8
  store ptr %32, ptr %7, align 8
  %33 = load ptr, ptr %24, align 8
  %34 = load ptr, ptr %6, align 8
  %35 = call noalias ptr (ptr, ptr, ...) @wmem_strdup_printf(ptr noundef %33, ptr noundef nonnull @.str.250, ptr noundef %32, ptr noundef %34)
  br label %38

36:                                               ; preds = %23
  %37 = load ptr, ptr %6, align 8
  br label %38

38:                                               ; preds = %36, %30
  %.0 = phi ptr [ %35, %30 ], [ %37, %36 ]
  %39 = load ptr, ptr %11, align 8
  call void (ptr, ptr, ...) @proto_item_append_text(ptr noundef %39, ptr noundef nonnull @.str.306, ptr noundef %.0)
  %40 = load i32, ptr %8, align 4
  %41 = call ptr @proto_tree_add_string(ptr noundef %17, i32 noundef %40, ptr noundef %0, i32 noundef %26, i32 noundef %15, ptr noundef %.0)
  br label %59

42:                                               ; preds = %10
  %43 = getelementptr inbounds nuw i8, ptr %1, i64 408
  %44 = load ptr, ptr %43, align 8
  %45 = add i32 %3, 4
  %46 = call ptr @tvb_get_string_enc(ptr noundef %44, ptr noundef %0, i32 noundef %45, i32 noundef %15, i32 noundef 0)
  store ptr %46, ptr %6, align 8
  %47 = load ptr, ptr %11, align 8
  call void (ptr, ptr, ...) @proto_item_append_text(ptr noundef %47, ptr noundef nonnull @.str.306, ptr noundef %46)
  %48 = load i32, ptr %8, align 4
  %49 = load ptr, ptr %6, align 8
  %50 = call ptr @proto_tree_add_string(ptr noundef %17, i32 noundef %48, ptr noundef %0, i32 noundef %45, i32 noundef %15, ptr noundef %49)
  br label %59

51:                                               ; preds = %10
  %52 = add i32 %3, 4
  %53 = call i32 @tvb_get_ntohl(ptr noundef %0, i32 noundef %52)
  %54 = call ptr @wmem_file_scope()
  %55 = call noalias ptr (ptr, ptr, ...) @wmem_strdup_printf(ptr noundef %54, ptr noundef nonnull @.str.315, i32 noundef %53)
  store ptr %55, ptr %6, align 8
  %56 = load ptr, ptr %11, align 8
  call void (ptr, ptr, ...) @proto_item_append_text(ptr noundef %56, ptr noundef nonnull @.str.306, ptr noundef %55)
  %57 = load i32, ptr %8, align 4
  %58 = call ptr @proto_tree_add_item(ptr noundef %17, i32 noundef %57, ptr noundef %0, i32 noundef %52, i32 noundef 4, i32 noundef 0)
  br label %59

default.unreachable1:                             ; preds = %10
  unreachable

59:                                               ; preds = %51, %42, %38
  call void @llvm.lifetime.end.p0(i64 8, ptr nonnull %11) #12
  ret void
}